target datalayout = "e-m:e-p270:32:32-p271:32:32-p272:64:64-i64:64-i128:128-f80:128-n8:16:32:64-S128"
target triple = "x86_64-pc-linux-gnu"

%class.anon = type { i8 }

; Function Attrs: mustprogress nounwind uwtable
define linkonce_odr noundef nonnull align 1 dereferenceable(1) ptr @_ZSt3maxIhERKT_S2_S2_(ptr noundef nonnull align 1 dereferenceable(1) %0, ptr noundef nonnull align 1 dereferenceable(1) %1) #5 comdat {
  %3 = alloca ptr, align 8
  %4 = alloca ptr, align 8
  %5 = alloca ptr, align 8
  store ptr %0, ptr %4, align 8
  store ptr %1, ptr %5, align 8
  %6 = load ptr, ptr %4, align 8
  %7 = load i8, ptr %6, align 1
  %8 = zext i8 %7 to i32
  %9 = load ptr, ptr %5, align 8
  %10 = load i8, ptr %9, align 1
  %11 = zext i8 %10 to i32
  %12 = icmp slt i32 %8, %11
  br i1 %12, label %13, label %15

13:                                               ; preds = %2
  %14 = load ptr, ptr %5, align 8
  store ptr %14, ptr %3, align 8
  br label %17

15:                                               ; preds = %2
  %16 = load ptr, ptr %4, align 8
  store ptr %16, ptr %3, align 8
  br label %17

17:                                               ; preds = %15, %13
  %18 = load ptr, ptr %3, align 8
  ret ptr %18
}

; Function Attrs: mustprogress nounwind uwtable
define linkonce_odr noundef nonnull align 1 dereferenceable(1) ptr @_ZSt3minIhERKT_S2_S2_(ptr noundef nonnull align 1 dereferenceable(1) %0, ptr noundef nonnull align 1 dereferenceable(1) %1) #5 comdat {
  %3 = alloca ptr, align 8
  %4 = alloca ptr, align 8
  %5 = alloca ptr, align 8
  store ptr %0, ptr %4, align 8
  store ptr %1, ptr %5, align 8
  %6 = load ptr, ptr %5, align 8
  %7 = load i8, ptr %6, align 1
  %8 = zext i8 %7 to i32
  %9 = load ptr, ptr %4, align 8
  %10 = load i8, ptr %9, align 1
  %11 = zext i8 %10 to i32
  %12 = icmp slt i32 %8, %11
  br i1 %12, label %13, label %15

13:                                               ; preds = %2
  %14 = load ptr, ptr %5, align 8
  store ptr %14, ptr %3, align 8
  br label %17

15:                                               ; preds = %2
  %16 = load ptr, ptr %4, align 8
  store ptr %16, ptr %3, align 8
  br label %17

17:                                               ; preds = %15, %13
  %18 = load ptr, ptr %3, align 8
  ret ptr %18
}

; Function Attrs: mustprogress nounwind uwtable
define internal void @_ZZN2cv4gapi5fluid12cpu_baselineL24run_medblur3x3_referenceIhEEvPT_PPKS4_iiENKUlRhS9_E_clES9_S9_(ptr noundef nonnull align 1 dereferenceable(1) %0, ptr noundef nonnull align 1 dereferenceable(1) %1, ptr noundef nonnull align 1 dereferenceable(1) %2) #5 align 2 {
  %4 = alloca ptr, align 8
  %5 = alloca ptr, align 8
  %6 = alloca ptr, align 8
  %7 = alloca i8, align 1
  %8 = alloca i8, align 1
  store ptr %0, ptr %4, align 8
  store ptr %1, ptr %5, align 8
  store ptr %2, ptr %6, align 8
  %9 = load ptr, ptr %5, align 8
  %10 = load i8, ptr %9, align 1
  store i8 %10, ptr %7, align 1
  %11 = load ptr, ptr %6, align 8
  %12 = load i8, ptr %11, align 1
  store i8 %12, ptr %8, align 1
  %13 = call noundef nonnull align 1 dereferenceable(1) ptr @_ZSt3minIhERKT_S2_S2_(ptr noundef nonnull align 1 dereferenceable(1) %7, ptr noundef nonnull align 1 dereferenceable(1) %8)
  %14 = load i8, ptr %13, align 1
  %15 = load ptr, ptr %5, align 8
  store i8 %14, ptr %15, align 1
  %16 = call noundef nonnull align 1 dereferenceable(1) ptr @_ZSt3maxIhERKT_S2_S2_(ptr noundef nonnull align 1 dereferenceable(1) %7, ptr noundef nonnull align 1 dereferenceable(1) %8)
  %17 = load i8, ptr %16, align 1
  %18 = load ptr, ptr %6, align 8
  store i8 %17, ptr %18, align 1
  ret void
}

; Function Attrs: mustprogress uwtable
define internal void @_ZN2cv4gapi5fluid12cpu_baselineL24run_medblur3x3_referenceIhEEvPT_PPKS4_ii(ptr noundef %0, ptr noundef %1, i32 noundef %2, i32 noundef %3) #0 {
  %5 = alloca ptr, align 8
  %6 = alloca ptr, align 8
  %7 = alloca i32, align 4
  %8 = alloca i32, align 4
  %9 = alloca i32, align 4
  %10 = alloca i32, align 4
  %11 = alloca i32, align 4
  %12 = alloca i32, align 4
  %13 = alloca i32, align 4
  %14 = alloca [3 x [3 x i8]], align 1
  %15 = alloca %class.anon, align 1
  store ptr %0, ptr %5, align 8
  store ptr %1, ptr %6, align 8
  store i32 %2, ptr %7, align 4
  store i32 %3, ptr %8, align 4
  store i32 3, ptr %9, align 4
  store i32 1, ptr %10, align 4
  %16 = load i32, ptr %7, align 4
  %17 = load i32, ptr %8, align 4
  %18 = mul nsw i32 %16, %17
  store i32 %18, ptr %11, align 4
  %19 = load i32, ptr %8, align 4
  %20 = mul nsw i32 1, %19
  store i32 %20, ptr %12, align 4
  store i32 0, ptr %13, align 4
  br label %21

21:                                               ; preds = %202, %4
  %22 = load i32, ptr %13, align 4
  %23 = load i32, ptr %11, align 4
  %24 = icmp slt i32 %22, %23
  br i1 %24, label %25, label %205

25:                                               ; preds = %21
  %26 = load ptr, ptr %6, align 8
  %27 = getelementptr inbounds ptr, ptr %26, i64 0
  %28 = load ptr, ptr %27, align 8
  %29 = load i32, ptr %13, align 4
  %30 = load i32, ptr %12, align 4
  %31 = sub nsw i32 %29, %30
  %32 = sext i32 %31 to i64
  %33 = getelementptr inbounds i8, ptr %28, i64 %32
  %34 = load i8, ptr %33, align 1
  %35 = getelementptr inbounds [3 x [3 x i8]], ptr %14, i64 0, i64 0
  %36 = getelementptr inbounds [3 x i8], ptr %35, i64 0, i64 0
  store i8 %34, ptr %36, align 1
  %37 = load ptr, ptr %6, align 8
  %38 = getelementptr inbounds ptr, ptr %37, i64 0
  %39 = load ptr, ptr %38, align 8
  %40 = load i32, ptr %13, align 4
  %41 = sext i32 %40 to i64
  %42 = getelementptr inbounds i8, ptr %39, i64 %41
  %43 = load i8, ptr %42, align 1
  %44 = getelementptr inbounds [3 x [3 x i8]], ptr %14, i64 0, i64 0
  %45 = getelementptr inbounds [3 x i8], ptr %44, i64 0, i64 1
  store i8 %43, ptr %45, align 1
  %46 = load ptr, ptr %6, align 8
  %47 = getelementptr inbounds ptr, ptr %46, i64 0
  %48 = load ptr, ptr %47, align 8
  %49 = load i32, ptr %13, align 4
  %50 = load i32, ptr %12, align 4
  %51 = add nsw i32 %49, %50
  %52 = sext i32 %51 to i64
  %53 = getelementptr inbounds i8, ptr %48, i64 %52
  %54 = load i8, ptr %53, align 1
  %55 = getelementptr inbounds [3 x [3 x i8]], ptr %14, i64 0, i64 0
  %56 = getelementptr inbounds [3 x i8], ptr %55, i64 0, i64 2
  store i8 %54, ptr %56, align 1
  %57 = load ptr, ptr %6, align 8
  %58 = getelementptr inbounds ptr, ptr %57, i64 1
  %59 = load ptr, ptr %58, align 8
  %60 = load i32, ptr %13, align 4
  %61 = load i32, ptr %12, align 4
  %62 = sub nsw i32 %60, %61
  %63 = sext i32 %62 to i64
  %64 = getelementptr inbounds i8, ptr %59, i64 %63
  %65 = load i8, ptr %64, align 1
  %66 = getelementptr inbounds [3 x [3 x i8]], ptr %14, i64 0, i64 1
  %67 = getelementptr inbounds [3 x i8], ptr %66, i64 0, i64 0
  store i8 %65, ptr %67, align 1
  %68 = load ptr, ptr %6, align 8
  %69 = getelementptr inbounds ptr, ptr %68, i64 1
  %70 = load ptr, ptr %69, align 8
  %71 = load i32, ptr %13, align 4
  %72 = sext i32 %71 to i64
  %73 = getelementptr inbounds i8, ptr %70, i64 %72
  %74 = load i8, ptr %73, align 1
  %75 = getelementptr inbounds [3 x [3 x i8]], ptr %14, i64 0, i64 1
  %76 = getelementptr inbounds [3 x i8], ptr %75, i64 0, i64 1
  store i8 %74, ptr %76, align 1
  %77 = load ptr, ptr %6, align 8
  %78 = getelementptr inbounds ptr, ptr %77, i64 1
  %79 = load ptr, ptr %78, align 8
  %80 = load i32, ptr %13, align 4
  %81 = load i32, ptr %12, align 4
  %82 = add nsw i32 %80, %81
  %83 = sext i32 %82 to i64
  %84 = getelementptr inbounds i8, ptr %79, i64 %83
  %85 = load i8, ptr %84, align 1
  %86 = getelementptr inbounds [3 x [3 x i8]], ptr %14, i64 0, i64 1
  %87 = getelementptr inbounds [3 x i8], ptr %86, i64 0, i64 2
  store i8 %85, ptr %87, align 1
  %88 = load ptr, ptr %6, align 8
  %89 = getelementptr inbounds ptr, ptr %88, i64 2
  %90 = load ptr, ptr %89, align 8
  %91 = load i32, ptr %13, align 4
  %92 = load i32, ptr %12, align 4
  %93 = sub nsw i32 %91, %92
  %94 = sext i32 %93 to i64
  %95 = getelementptr inbounds i8, ptr %90, i64 %94
  %96 = load i8, ptr %95, align 1
  %97 = getelementptr inbounds [3 x [3 x i8]], ptr %14, i64 0, i64 2
  %98 = getelementptr inbounds [3 x i8], ptr %97, i64 0, i64 0
  store i8 %96, ptr %98, align 1
  %99 = load ptr, ptr %6, align 8
  %100 = getelementptr inbounds ptr, ptr %99, i64 2
  %101 = load ptr, ptr %100, align 8
  %102 = load i32, ptr %13, align 4
  %103 = sext i32 %102 to i64
  %104 = getelementptr inbounds i8, ptr %101, i64 %103
  %105 = load i8, ptr %104, align 1
  %106 = getelementptr inbounds [3 x [3 x i8]], ptr %14, i64 0, i64 2
  %107 = getelementptr inbounds [3 x i8], ptr %106, i64 0, i64 1
  store i8 %105, ptr %107, align 1
  %108 = load ptr, ptr %6, align 8
  %109 = getelementptr inbounds ptr, ptr %108, i64 2
  %110 = load ptr, ptr %109, align 8
  %111 = load i32, ptr %13, align 4
  %112 = load i32, ptr %12, align 4
  %113 = add nsw i32 %111, %112
  %114 = sext i32 %113 to i64
  %115 = getelementptr inbounds i8, ptr %110, i64 %114
  %116 = load i8, ptr %115, align 1
  %117 = getelementptr inbounds [3 x [3 x i8]], ptr %14, i64 0, i64 2
  %118 = getelementptr inbounds [3 x i8], ptr %117, i64 0, i64 2
  store i8 %116, ptr %118, align 1
  %119 = getelementptr inbounds [3 x [3 x i8]], ptr %14, i64 0, i64 0
  %120 = getelementptr inbounds [3 x i8], ptr %119, i64 0, i64 0
  %121 = getelementptr inbounds [3 x [3 x i8]], ptr %14, i64 0, i64 0
  %122 = getelementptr inbounds [3 x i8], ptr %121, i64 0, i64 1
  call void @_ZZN2cv4gapi5fluid12cpu_baselineL24run_medblur3x3_referenceIhEEvPT_PPKS4_iiENKUlRhS9_E_clES9_S9_(ptr noundef nonnull align 1 dereferenceable(1) %15, ptr noundef nonnull align 1 dereferenceable(1) %120, ptr noundef nonnull align 1 dereferenceable(1) %122)
  %123 = getelementptr inbounds [3 x [3 x i8]], ptr %14, i64 0, i64 0
  %124 = getelementptr inbounds [3 x i8], ptr %123, i64 0, i64 1
  %125 = getelementptr inbounds [3 x [3 x i8]], ptr %14, i64 0, i64 0
  %126 = getelementptr inbounds [3 x i8], ptr %125, i64 0, i64 2
  call void @_ZZN2cv4gapi5fluid12cpu_baselineL24run_medblur3x3_referenceIhEEvPT_PPKS4_iiENKUlRhS9_E_clES9_S9_(ptr noundef nonnull align 1 dereferenceable(1) %15, ptr noundef nonnull align 1 dereferenceable(1) %124, ptr noundef nonnull align 1 dereferenceable(1) %126)
  %127 = getelementptr inbounds [3 x [3 x i8]], ptr %14, i64 0, i64 0
  %128 = getelementptr inbounds [3 x i8], ptr %127, i64 0, i64 0
  %129 = getelementptr inbounds [3 x [3 x i8]], ptr %14, i64 0, i64 0
  %130 = getelementptr inbounds [3 x i8], ptr %129, i64 0, i64 1
  call void @_ZZN2cv4gapi5fluid12cpu_baselineL24run_medblur3x3_referenceIhEEvPT_PPKS4_iiENKUlRhS9_E_clES9_S9_(ptr noundef nonnull align 1 dereferenceable(1) %15, ptr noundef nonnull align 1 dereferenceable(1) %128, ptr noundef nonnull align 1 dereferenceable(1) %130)
  %131 = getelementptr inbounds [3 x [3 x i8]], ptr %14, i64 0, i64 1
  %132 = getelementptr inbounds [3 x i8], ptr %131, i64 0, i64 0
  %133 = getelementptr inbounds [3 x [3 x i8]], ptr %14, i64 0, i64 1
  %134 = getelementptr inbounds [3 x i8], ptr %133, i64 0, i64 1
  call void @_ZZN2cv4gapi5fluid12cpu_baselineL24run_medblur3x3_referenceIhEEvPT_PPKS4_iiENKUlRhS9_E_clES9_S9_(ptr noundef nonnull align 1 dereferenceable(1) %15, ptr noundef nonnull align 1 dereferenceable(1) %132, ptr noundef nonnull align 1 dereferenceable(1) %134)
  %135 = getelementptr inbounds [3 x [3 x i8]], ptr %14, i64 0, i64 1
  %136 = getelementptr inbounds [3 x i8], ptr %135, i64 0, i64 1
  %137 = getelementptr inbounds [3 x [3 x i8]], ptr %14, i64 0, i64 1
  %138 = getelementptr inbounds [3 x i8], ptr %137, i64 0, i64 2
  call void @_ZZN2cv4gapi5fluid12cpu_baselineL24run_medblur3x3_referenceIhEEvPT_PPKS4_iiENKUlRhS9_E_clES9_S9_(ptr noundef nonnull align 1 dereferenceable(1) %15, ptr noundef nonnull align 1 dereferenceable(1) %136, ptr noundef nonnull align 1 dereferenceable(1) %138)
  %139 = getelementptr inbounds [3 x [3 x i8]], ptr %14, i64 0, i64 1
  %140 = getelementptr inbounds [3 x i8], ptr %139, i64 0, i64 0
  %141 = getelementptr inbounds [3 x [3 x i8]], ptr %14, i64 0, i64 1
  %142 = getelementptr inbounds [3 x i8], ptr %141, i64 0, i64 1
  call void @_ZZN2cv4gapi5fluid12cpu_baselineL24run_medblur3x3_referenceIhEEvPT_PPKS4_iiENKUlRhS9_E_clES9_S9_(ptr noundef nonnull align 1 dereferenceable(1) %15, ptr noundef nonnull align 1 dereferenceable(1) %140, ptr noundef nonnull align 1 dereferenceable(1) %142)
  %143 = getelementptr inbounds [3 x [3 x i8]], ptr %14, i64 0, i64 2
  %144 = getelementptr inbounds [3 x i8], ptr %143, i64 0, i64 0
  %145 = getelementptr inbounds [3 x [3 x i8]], ptr %14, i64 0, i64 2
  %146 = getelementptr inbounds [3 x i8], ptr %145, i64 0, i64 1
  call void @_ZZN2cv4gapi5fluid12cpu_baselineL24run_medblur3x3_referenceIhEEvPT_PPKS4_iiENKUlRhS9_E_clES9_S9_(ptr noundef nonnull align 1 dereferenceable(1) %15, ptr noundef nonnull align 1 dereferenceable(1) %144, ptr noundef nonnull align 1 dereferenceable(1) %146)
  %147 = getelementptr inbounds [3 x [3 x i8]], ptr %14, i64 0, i64 2
  %148 = getelementptr inbounds [3 x i8], ptr %147, i64 0, i64 1
  %149 = getelementptr inbounds [3 x [3 x i8]], ptr %14, i64 0, i64 2
  %150 = getelementptr inbounds [3 x i8], ptr %149, i64 0, i64 2
  call void @_ZZN2cv4gapi5fluid12cpu_baselineL24run_medblur3x3_referenceIhEEvPT_PPKS4_iiENKUlRhS9_E_clES9_S9_(ptr noundef nonnull align 1 dereferenceable(1) %15, ptr noundef nonnull align 1 dereferenceable(1) %148, ptr noundef nonnull align 1 dereferenceable(1) %150)
  %151 = getelementptr inbounds [3 x [3 x i8]], ptr %14, i64 0, i64 2
  %152 = getelementptr inbounds [3 x i8], ptr %151, i64 0, i64 0
  %153 = getelementptr inbounds [3 x [3 x i8]], ptr %14, i64 0, i64 2
  %154 = getelementptr inbounds [3 x i8], ptr %153, i64 0, i64 1
  call void @_ZZN2cv4gapi5fluid12cpu_baselineL24run_medblur3x3_referenceIhEEvPT_PPKS4_iiENKUlRhS9_E_clES9_S9_(ptr noundef nonnull align 1 dereferenceable(1) %15, ptr noundef nonnull align 1 dereferenceable(1) %152, ptr noundef nonnull align 1 dereferenceable(1) %154)
  %155 = getelementptr inbounds [3 x [3 x i8]], ptr %14, i64 0, i64 0
  %156 = getelementptr inbounds [3 x i8], ptr %155, i64 0, i64 0
  %157 = getelementptr inbounds [3 x [3 x i8]], ptr %14, i64 0, i64 1
  %158 = getelementptr inbounds [3 x i8], ptr %157, i64 0, i64 0
  call void @_ZZN2cv4gapi5fluid12cpu_baselineL24run_medblur3x3_referenceIhEEvPT_PPKS4_iiENKUlRhS9_E_clES9_S9_(ptr noundef nonnull align 1 dereferenceable(1) %15, ptr noundef nonnull align 1 dereferenceable(1) %156, ptr noundef nonnull align 1 dereferenceable(1) %158)
  %159 = getelementptr inbounds [3 x [3 x i8]], ptr %14, i64 0, i64 0
  %160 = getelementptr inbounds [3 x i8], ptr %159, i64 0, i64 1
  %161 = getelementptr inbounds [3 x [3 x i8]], ptr %14, i64 0, i64 1
  %162 = getelementptr inbounds [3 x i8], ptr %161, i64 0, i64 1
  call void @_ZZN2cv4gapi5fluid12cpu_baselineL24run_medblur3x3_referenceIhEEvPT_PPKS4_iiENKUlRhS9_E_clES9_S9_(ptr noundef nonnull align 1 dereferenceable(1) %15, ptr noundef nonnull align 1 dereferenceable(1) %160, ptr noundef nonnull align 1 dereferenceable(1) %162)
  %163 = getelementptr inbounds [3 x [3 x i8]], ptr %14, i64 0, i64 1
  %164 = getelementptr inbounds [3 x i8], ptr %163, i64 0, i64 0
  %165 = getelementptr inbounds [3 x [3 x i8]], ptr %14, i64 0, i64 2
  %166 = getelementptr inbounds [3 x i8], ptr %165, i64 0, i64 0
  call void @_ZZN2cv4gapi5fluid12cpu_baselineL24run_medblur3x3_referenceIhEEvPT_PPKS4_iiENKUlRhS9_E_clES9_S9_(ptr noundef nonnull align 1 dereferenceable(1) %15, ptr noundef nonnull align 1 dereferenceable(1) %164, ptr noundef nonnull align 1 dereferenceable(1) %166)
  %167 = getelementptr inbounds [3 x [3 x i8]], ptr %14, i64 0, i64 1
  %168 = getelementptr inbounds [3 x i8], ptr %167, i64 0, i64 1
  %169 = getelementptr inbounds [3 x [3 x i8]], ptr %14, i64 0, i64 2
  %170 = getelementptr inbounds [3 x i8], ptr %169, i64 0, i64 1
  call void @_ZZN2cv4gapi5fluid12cpu_baselineL24run_medblur3x3_referenceIhEEvPT_PPKS4_iiENKUlRhS9_E_clES9_S9_(ptr noundef nonnull align 1 dereferenceable(1) %15, ptr noundef nonnull align 1 dereferenceable(1) %168, ptr noundef nonnull align 1 dereferenceable(1) %170)
  %171 = getelementptr inbounds [3 x [3 x i8]], ptr %14, i64 0, i64 1
  %172 = getelementptr inbounds [3 x i8], ptr %171, i64 0, i64 2
  %173 = getelementptr inbounds [3 x [3 x i8]], ptr %14, i64 0, i64 2
  %174 = getelementptr inbounds [3 x i8], ptr %173, i64 0, i64 2
  call void @_ZZN2cv4gapi5fluid12cpu_baselineL24run_medblur3x3_referenceIhEEvPT_PPKS4_iiENKUlRhS9_E_clES9_S9_(ptr noundef nonnull align 1 dereferenceable(1) %15, ptr noundef nonnull align 1 dereferenceable(1) %172, ptr noundef nonnull align 1 dereferenceable(1) %174)
  %175 = getelementptr inbounds [3 x [3 x i8]], ptr %14, i64 0, i64 0
  %176 = getelementptr inbounds [3 x i8], ptr %175, i64 0, i64 1
  %177 = getelementptr inbounds [3 x [3 x i8]], ptr %14, i64 0, i64 1
  %178 = getelementptr inbounds [3 x i8], ptr %177, i64 0, i64 1
  call void @_ZZN2cv4gapi5fluid12cpu_baselineL24run_medblur3x3_referenceIhEEvPT_PPKS4_iiENKUlRhS9_E_clES9_S9_(ptr noundef nonnull align 1 dereferenceable(1) %15, ptr noundef nonnull align 1 dereferenceable(1) %176, ptr noundef nonnull align 1 dereferenceable(1) %178)
  %179 = getelementptr inbounds [3 x [3 x i8]], ptr %14, i64 0, i64 0
  %180 = getelementptr inbounds [3 x i8], ptr %179, i64 0, i64 2
  %181 = getelementptr inbounds [3 x [3 x i8]], ptr %14, i64 0, i64 1
  %182 = getelementptr inbounds [3 x i8], ptr %181, i64 0, i64 2
  call void @_ZZN2cv4gapi5fluid12cpu_baselineL24run_medblur3x3_referenceIhEEvPT_PPKS4_iiENKUlRhS9_E_clES9_S9_(ptr noundef nonnull align 1 dereferenceable(1) %15, ptr noundef nonnull align 1 dereferenceable(1) %180, ptr noundef nonnull align 1 dereferenceable(1) %182)
  %183 = getelementptr inbounds [3 x [3 x i8]], ptr %14, i64 0, i64 1
  %184 = getelementptr inbounds [3 x i8], ptr %183, i64 0, i64 1
  %185 = getelementptr inbounds [3 x [3 x i8]], ptr %14, i64 0, i64 0
  %186 = getelementptr inbounds [3 x i8], ptr %185, i64 0, i64 2
  call void @_ZZN2cv4gapi5fluid12cpu_baselineL24run_medblur3x3_referenceIhEEvPT_PPKS4_iiENKUlRhS9_E_clES9_S9_(ptr noundef nonnull align 1 dereferenceable(1) %15, ptr noundef nonnull align 1 dereferenceable(1) %184, ptr noundef nonnull align 1 dereferenceable(1) %186)
  %187 = getelementptr inbounds [3 x [3 x i8]], ptr %14, i64 0, i64 2
  %188 = getelementptr inbounds [3 x i8], ptr %187, i64 0, i64 0
  %189 = getelementptr inbounds [3 x [3 x i8]], ptr %14, i64 0, i64 1
  %190 = getelementptr inbounds [3 x i8], ptr %189, i64 0, i64 1
  call void @_ZZN2cv4gapi5fluid12cpu_baselineL24run_medblur3x3_referenceIhEEvPT_PPKS4_iiENKUlRhS9_E_clES9_S9_(ptr noundef nonnull align 1 dereferenceable(1) %15, ptr noundef nonnull align 1 dereferenceable(1) %188, ptr noundef nonnull align 1 dereferenceable(1) %190)
  %191 = getelementptr inbounds [3 x [3 x i8]], ptr %14, i64 0, i64 1
  %192 = getelementptr inbounds [3 x i8], ptr %191, i64 0, i64 1
  %193 = getelementptr inbounds [3 x [3 x i8]], ptr %14, i64 0, i64 0
  %194 = getelementptr inbounds [3 x i8], ptr %193, i64 0, i64 2
  call void @_ZZN2cv4gapi5fluid12cpu_baselineL24run_medblur3x3_referenceIhEEvPT_PPKS4_iiENKUlRhS9_E_clES9_S9_(ptr noundef nonnull align 1 dereferenceable(1) %15, ptr noundef nonnull align 1 dereferenceable(1) %192, ptr noundef nonnull align 1 dereferenceable(1) %194)
  %195 = getelementptr inbounds [3 x [3 x i8]], ptr %14, i64 0, i64 1
  %196 = getelementptr inbounds [3 x i8], ptr %195, i64 0, i64 1
  %197 = load i8, ptr %196, align 1
  %198 = load ptr, ptr %5, align 8
  %199 = load i32, ptr %13, align 4
  %200 = sext i32 %199 to i64
  %201 = getelementptr inbounds i8, ptr %198, i64 %200
  store i8 %197, ptr %201, align 1
  br label %202

202:                                              ; preds = %25
  %203 = load i32, ptr %13, align 4
  %204 = add nsw i32 %203, 1
  store i32 %204, ptr %13, align 4
  br label %21, !llvm.loop !232

205:                                              ; preds = %21
  ret void
}

; Function Attrs: mustprogress uwtable
define internal void @_ZN2cv4gapi5fluid12cpu_baselineL19run_medblur3x3_codeIhEEvPT_PPKS4_ii(ptr noundef %0, ptr noundef %1, i32 noundef %2, i32 noundef %3) #0 {
  %5 = alloca ptr, align 8
  %6 = alloca ptr, align 8
  %7 = alloca i32, align 4
  %8 = alloca i32, align 4
  store ptr %0, ptr %5, align 8
  store ptr %1, ptr %6, align 8
  store i32 %2, ptr %7, align 4
  store i32 %3, ptr %8, align 4
  %9 = load ptr, ptr %5, align 8
  %10 = load ptr, ptr %6, align 8
  %11 = load i32, ptr %7, align 4
  %12 = load i32, ptr %8, align 4
  call void @_ZN2cv4gapi5fluid12cpu_baselineL24run_medblur3x3_referenceIhEEvPT_PPKS4_ii(ptr noundef %9, ptr noundef %10, i32 noundef %11, i32 noundef %12)
  ret void
}

; Function Attrs: mustprogress uwtable
define hidden void @_ZN2cv4gapi5fluid12cpu_baseline19run_medblur3x3_implEPhPPKhii(ptr noundef %0, ptr noundef %1, i32 noundef %2, i32 noundef %3) #0 {
  %5 = alloca ptr, align 8
  %6 = alloca ptr, align 8
  %7 = alloca i32, align 4
  %8 = alloca i32, align 4
  store ptr %0, ptr %5, align 8
  store ptr %1, ptr %6, align 8
  store i32 %2, ptr %7, align 4
  store i32 %3, ptr %8, align 4
  %9 = load ptr, ptr %5, align 8
  %10 = load ptr, ptr %6, align 8
  %11 = load i32, ptr %7, align 4
  %12 = load i32, ptr %8, align 4
  call void @_ZN2cv4gapi5fluid12cpu_baselineL19run_medblur3x3_codeIhEEvPT_PPKS4_ii(ptr noundef %9, ptr noundef %10, i32 noundef %11, i32 noundef %12)
  ret void
}